target datalayout = "e-m:e-p270:32:32-p271:32:32-p272:64:64-i64:64-i128:128-f80:128-n8:16:32:64-S128"
target triple = "x86_64-pc-linux-gnu"

%"struct.folly::detail::SingletonThreadLocalState::LocalCache" = type { ptr }
%"class.std::shared_ptr" = type { %"class.std::__shared_ptr" }
%"class.std::__shared_ptr" = type { ptr, %"class.std::__shared_count" }
%"class.std::__shared_count" = type { ptr }
%"struct.std::atomic.188" = type { %"struct.std::__atomic_base.189" }
%"struct.std::__atomic_base.189" = type { i64 }
%"struct.folly::RequestContext::StaticContext" = type { %"class.std::shared_ptr", %"struct.std::atomic.188" }
%"struct.folly::SingletonThreadLocal<folly::RequestContext::StaticContext, folly::RequestContext>::ObjectWrapper" = type { %"struct.folly::RequestContext::StaticContext" }

@_ZN5folly12_GLOBAL__N_122getStaticContextCalledE = internal thread_local global i8 0, align 1
@_ZZN5folly20SingletonThreadLocalINS_14RequestContext13StaticContextES1_NS_6detail11DefaultMakeIS2_EES1_E3getEvE5cache = linkonce_odr thread_local global %"struct.folly::detail::SingletonThreadLocalState::LocalCache" zeroinitializer, comdat, align 8

; Function Attrs: alwaysinline mustprogress uwtable
define linkonce_odr noundef nonnull align 8 dereferenceable(24) ptr @_ZN5folly20SingletonThreadLocalINS_14RequestContext13StaticContextES1_NS_6detail11DefaultMakeIS2_EES1_E3getEv() #3 comdat align 2 {
  %1 = alloca ptr, align 8
  call void @llvm.lifetime.start.p0(i64 8, ptr %1) #12
  %2 = call align 8 ptr @llvm.threadlocal.address.p0(ptr align 8 @_ZZN5folly20SingletonThreadLocalINS_14RequestContext13StaticContextES1_NS_6detail11DefaultMakeIS2_EES1_E3getEvE5cache)
  %3 = getelementptr inbounds nuw %"struct.folly::detail::SingletonThreadLocalState::LocalCache", ptr %2, i32 0, i32 0
  %4 = load ptr, ptr %3, align 8, !tbaa !972
  store ptr %4, ptr %1, align 8, !tbaa !1401
  %5 = load ptr, ptr %1, align 8, !tbaa !1401
  %6 = icmp ne ptr %5, null
  %7 = xor i1 %6, true
  %8 = xor i1 %7, true
  %9 = zext i1 %8 to i64
  %10 = call i64 @llvm.expect.i64(i64 %9, i64 1)
  %11 = icmp ne i64 %10, 0
  br i1 %11, label %12, label %14

12:                                               ; preds = %0
  %13 = load ptr, ptr %1, align 8, !tbaa !1401
  br label %18

14:                                               ; preds = %0
  %15 = call align 8 ptr @llvm.threadlocal.address.p0(ptr align 8 @_ZZN5folly20SingletonThreadLocalINS_14RequestContext13StaticContextES1_NS_6detail11DefaultMakeIS2_EES1_E3getEvE5cache)
  %16 = call noundef nonnull align 8 dereferenceable(136) ptr @_ZN5folly20SingletonThreadLocalINS_14RequestContext13StaticContextES1_NS_6detail11DefaultMakeIS2_EES1_E7getSlowERNS3_25SingletonThreadLocalState10LocalCacheE(ptr noundef nonnull align 8 dereferenceable(8) %15)
  %17 = getelementptr inbounds nuw %"struct.folly::SingletonThreadLocal<folly::RequestContext::StaticContext, folly::RequestContext>::ObjectWrapper", ptr %16, i32 0, i32 0
  br label %18

18:                                               ; preds = %14, %12
  %19 = phi ptr [ %13, %12 ], [ %17, %14 ]
  call void @llvm.lifetime.end.p0(i64 8, ptr %1) #12
  ret ptr %19
}

; Function Attrs: mustprogress nounwind uwtable
define linkonce_odr noundef ptr @_ZNKSt12__shared_ptrIN5folly14RequestContextELN9__gnu_cxx12_Lock_policyE2EE3getEv(ptr noundef nonnull align 8 dereferenceable(16) %0) #2 comdat align 2 {
  %2 = alloca ptr, align 8
  store ptr %0, ptr %2, align 8, !tbaa !882
  %3 = load ptr, ptr %2, align 8
  %4 = getelementptr inbounds nuw %"class.std::__shared_ptr", ptr %3, i32 0, i32 0
  %5 = load ptr, ptr %4, align 8, !tbaa !884
  ret ptr %5
}

; Function Attrs: mustprogress uwtable
define noundef ptr @_ZN5folly14RequestContext19tryGetStaticContextEv() #0 align 2 {
  %1 = call align 1 ptr @llvm.threadlocal.address.p0(ptr align 1 @_ZN5folly12_GLOBAL__N_122getStaticContextCalledE)
  %2 = load i8, ptr %1, align 1, !tbaa !70, !range !72, !noundef !73
  %3 = trunc i8 %2 to i1
  br i1 %3, label %4, label %6

4:                                                ; preds = %0
  %5 = call noundef nonnull align 8 dereferenceable(24) ptr @_ZN5folly20SingletonThreadLocalINS_14RequestContext13StaticContextES1_NS_6detail11DefaultMakeIS2_EES1_E3getEv()
  br label %7

6:                                                ; preds = %0
  br label %7

7:                                                ; preds = %6, %4
  %8 = phi ptr [ %5, %4 ], [ null, %6 ]
  ret ptr %8
}

; Function Attrs: mustprogress uwtable
define noundef ptr @_ZN5folly14RequestContext7try_getEv() #0 align 2 {
  %1 = alloca ptr, align 8
  %2 = alloca ptr, align 8
  %3 = alloca i32, align 4
  call void @llvm.lifetime.start.p0(i64 8, ptr %2) #12
  %4 = call noundef ptr @_ZN5folly14RequestContext19tryGetStaticContextEv()
  store ptr %4, ptr %2, align 8, !tbaa !1401
  %5 = load ptr, ptr %2, align 8, !tbaa !1401
  %6 = icmp ne ptr %5, null
  br i1 %6, label %7, label %11

7:                                                ; preds = %0
  %8 = load ptr, ptr %2, align 8, !tbaa !1401
  %9 = getelementptr inbounds nuw %"struct.folly::RequestContext::StaticContext", ptr %8, i32 0, i32 0
  %10 = call noundef ptr @_ZNKSt12__shared_ptrIN5folly14RequestContextELN9__gnu_cxx12_Lock_policyE2EE3getEv(ptr noundef nonnull align 8 dereferenceable(16) %9) #12
  store ptr %10, ptr %1, align 8
  store i32 1, ptr %3, align 4
  br label %12

11:                                               ; preds = %0
  store i32 0, ptr %3, align 4
  br label %12

12:                                               ; preds = %11, %7
  call void @llvm.lifetime.end.p0(i64 8, ptr %2) #12
  %13 = load i32, ptr %3, align 4
  switch i32 %13, label %17 [
    i32 0, label %14
    i32 1, label %15
  ]

14:                                               ; preds = %12
  store ptr null, ptr %1, align 8
  br label %15

15:                                               ; preds = %14, %12
  %16 = load ptr, ptr %1, align 8
  ret ptr %16

17:                                               ; preds = %12
  unreachable
}