; Function Attrs: mustprogress uwtable
define noundef ptr @_ZN5folly14RequestContext7try_getEv() local_unnamed_addr #7 align 2 {
  %1 = tail call align 1 ptr @llvm.threadlocal.address.p0(ptr align 1 @_ZN5folly12_GLOBAL__N_122getStaticContextCalledE)
  %2 = load i8, ptr %1, align 1, !tbaa !91, !range !61, !noundef !62
  %3 = trunc nuw i8 %2 to i1
  br i1 %3, label %4, label %10

4:                                                ; preds = %0
  %5 = tail call align 8 ptr @llvm.threadlocal.address.p0(ptr align 8 @_ZZN5folly20SingletonThreadLocalINS_14RequestContext13StaticContextES1_NS_6detail11DefaultMakeIS2_EES1_E3getEvE5cache)
  %6 = load ptr, ptr %5, align 8, !tbaa !456
  %.not.i.i = icmp eq ptr %6, null
  br i1 %.not.i.i, label %7, label %_ZN5folly14RequestContext19tryGetStaticContextEv.exit, !prof !63

7:                                                ; preds = %4
  %8 = tail call noundef nonnull align 8 dereferenceable(136) ptr @_ZN5folly20SingletonThreadLocalINS_14RequestContext13StaticContextES1_NS_6detail11DefaultMakeIS2_EES1_E7getSlowERNS3_25SingletonThreadLocalState10LocalCacheE(ptr noundef nonnull align 8 dereferenceable(8) %5)
  br label %_ZN5folly14RequestContext19tryGetStaticContextEv.exit

_ZN5folly14RequestContext19tryGetStaticContextEv.exit: ; preds = %4, %7
  %.ph = phi ptr [ %6, %4 ], [ %8, %7 ]
  %9 = load ptr, ptr %.ph, align 8, !tbaa !380
  br label %10

10:                                               ; preds = %0, %_ZN5folly14RequestContext19tryGetStaticContextEv.exit
  %11 = phi ptr [ %9, %_ZN5folly14RequestContext19tryGetStaticContextEv.exit ], [ null, %0 ]
  ret ptr %11
}